target datalayout = "e-m:e-p270:32:32-p271:32:32-p272:64:64-i64:64-i128:128-f80:128-n8:16:32:64-S128"
target triple = "x86_64-pc-linux-gnu"

%"class.OpenColorIO_v2_5dev::Lut3DOpData" = type { %"class.OpenColorIO_v2_5dev::OpData", i32, %"class.OpenColorIO_v2_5dev::Lut3DOpData::Lut3DArray", i32, i32 }
%"class.OpenColorIO_v2_5dev::OpData" = type { ptr, %"class.std::mutex", %"class.OpenColorIO_v2_5dev::FormatMetadataImpl" }
%"class.std::mutex" = type { %"class.std::__mutex_base" }
%"class.std::__mutex_base" = type { %union.pthread_mutex_t }
%union.pthread_mutex_t = type { %struct.__pthread_mutex_s }
%struct.__pthread_mutex_s = type { i32, i32, i32, i32, i32, i16, i16, %struct.__pthread_internal_list }
%struct.__pthread_internal_list = type { ptr, ptr }
%"class.OpenColorIO_v2_5dev::FormatMetadataImpl" = type { %"class.OpenColorIO_v2_5dev::FormatMetadata", %"class.std::__cxx11::basic_string", %"class.std::__cxx11::basic_string", %"class.std::vector", %"class.std::vector.6" }
%"class.OpenColorIO_v2_5dev::FormatMetadata" = type { ptr }
%"class.std::__cxx11::basic_string" = type { %"struct.std::__cxx11::basic_string<char>::_Alloc_hider", i64, %union.anon }
%"struct.std::__cxx11::basic_string<char>::_Alloc_hider" = type { ptr }
%union.anon = type { i64, [8 x i8] }
%"class.std::vector" = type { %"struct.std::_Vector_base" }
%"struct.std::_Vector_base" = type { %"struct.std::_Vector_base<std::pair<std::__cxx11::basic_string<char>, std::__cxx11::basic_string<char>>, std::allocator<std::pair<std::__cxx11::basic_string<char>, std::__cxx11::basic_string<char>>>>::_Vector_impl" }
%"struct.std::_Vector_base<std::pair<std::__cxx11::basic_string<char>, std::__cxx11::basic_string<char>>, std::allocator<std::pair<std::__cxx11::basic_string<char>, std::__cxx11::basic_string<char>>>>::_Vector_impl" = type { %"struct.std::_Vector_base<std::pair<std::__cxx11::basic_string<char>, std::__cxx11::basic_string<char>>, std::allocator<std::pair<std::__cxx11::basic_string<char>, std::__cxx11::basic_string<char>>>>::_Vector_impl_data" }
%"struct.std::_Vector_base<std::pair<std::__cxx11::basic_string<char>, std::__cxx11::basic_string<char>>, std::allocator<std::pair<std::__cxx11::basic_string<char>, std::__cxx11::basic_string<char>>>>::_Vector_impl_data" = type { ptr, ptr, ptr }
%"class.std::vector.6" = type { %"struct.std::_Vector_base.7" }
%"struct.std::_Vector_base.7" = type { %"struct.std::_Vector_base<OpenColorIO_v2_5dev::FormatMetadataImpl, std::allocator<OpenColorIO_v2_5dev::FormatMetadataImpl>>::_Vector_impl" }
%"struct.std::_Vector_base<OpenColorIO_v2_5dev::FormatMetadataImpl, std::allocator<OpenColorIO_v2_5dev::FormatMetadataImpl>>::_Vector_impl" = type { %"struct.std::_Vector_base<OpenColorIO_v2_5dev::FormatMetadataImpl, std::allocator<OpenColorIO_v2_5dev::FormatMetadataImpl>>::_Vector_impl_data" }
%"struct.std::_Vector_base<OpenColorIO_v2_5dev::FormatMetadataImpl, std::allocator<OpenColorIO_v2_5dev::FormatMetadataImpl>>::_Vector_impl_data" = type { ptr, ptr, ptr }
%"class.OpenColorIO_v2_5dev::Lut3DOpData::Lut3DArray" = type { %"class.OpenColorIO_v2_5dev::ArrayT" }
%"class.OpenColorIO_v2_5dev::ArrayT" = type { %"class.OpenColorIO_v2_5dev::ArrayBase", i64, i64, %"class.std::vector.11" }
%"class.OpenColorIO_v2_5dev::ArrayBase" = type { ptr }
%"class.std::vector.11" = type { %"struct.std::_Vector_base.12" }
%"struct.std::_Vector_base.12" = type { %"struct.std::_Vector_base<float, std::allocator<float>>::_Vector_impl" }
%"struct.std::_Vector_base<float, std::allocator<float>>::_Vector_impl" = type { %"struct.std::_Vector_base<float, std::allocator<float>>::_Vector_impl_data" }
%"struct.std::_Vector_base<float, std::allocator<float>>::_Vector_impl_data" = type { ptr, ptr, ptr }
%"class.__gnu_cxx::__normal_iterator" = type { ptr }

; Function Attrs: mustprogress nounwind uwtable
define linkonce_odr hidden noundef zeroext i1 @_ZNSt7__equalILb0EE5equalIPKfS3_EEbT_S4_T0_(ptr noundef %0, ptr noundef %1, ptr noundef %2) #5 comdat align 2 {
  %4 = alloca i1, align 1
  %5 = alloca ptr, align 8
  %6 = alloca ptr, align 8
  %7 = alloca ptr, align 8
  store ptr %0, ptr %5, align 8, !tbaa !93
  store ptr %1, ptr %6, align 8, !tbaa !93
  store ptr %2, ptr %7, align 8, !tbaa !93
  br label %8

8:                                                ; preds = %20, %3
  %9 = load ptr, ptr %5, align 8, !tbaa !93
  %10 = load ptr, ptr %6, align 8, !tbaa !93
  %11 = icmp ne ptr %9, %10
  br i1 %11, label %12, label %25

12:                                               ; preds = %8
  %13 = load ptr, ptr %5, align 8, !tbaa !93
  %14 = load float, ptr %13, align 4, !tbaa !82
  %15 = load ptr, ptr %7, align 8, !tbaa !93
  %16 = load float, ptr %15, align 4, !tbaa !82
  %17 = fcmp oeq float %14, %16
  br i1 %17, label %19, label %18

18:                                               ; preds = %12
  store i1 false, ptr %4, align 1
  br label %26

19:                                               ; preds = %12
  br label %20

20:                                               ; preds = %19
  %21 = load ptr, ptr %5, align 8, !tbaa !93
  %22 = getelementptr inbounds nuw float, ptr %21, i32 1
  store ptr %22, ptr %5, align 8, !tbaa !93
  %23 = load ptr, ptr %7, align 8, !tbaa !93
  %24 = getelementptr inbounds nuw float, ptr %23, i32 1
  store ptr %24, ptr %7, align 8, !tbaa !93
  br label %8, !llvm.loop !294

25:                                               ; preds = %8
  store i1 true, ptr %4, align 1
  br label %26

26:                                               ; preds = %25, %18
  %27 = load i1, ptr %4, align 1
  ret i1 %27
}

; Function Attrs: mustprogress nounwind uwtable
define linkonce_odr hidden noundef nonnull align 8 dereferenceable(8) ptr @_ZNK9__gnu_cxx17__normal_iteratorIPKfSt6vectorIfSaIfEEE4baseEv(ptr noundef nonnull align 8 dereferenceable(8) %0) #5 comdat align 2 {
  %2 = alloca ptr, align 8
  store ptr %0, ptr %2, align 8, !tbaa !168
  %3 = load ptr, ptr %2, align 8
  %4 = getelementptr inbounds nuw %"class.__gnu_cxx::__normal_iterator", ptr %3, i32 0, i32 0
  ret ptr %4
}

; Function Attrs: inlinehint mustprogress uwtable
define linkonce_odr noundef zeroext i1 @_ZSt12__equal_aux1IPKfS1_EbT_S2_T0_(ptr noundef %0, ptr noundef %1, ptr noundef %2) #7 comdat {
  %4 = alloca ptr, align 8
  %5 = alloca ptr, align 8
  %6 = alloca ptr, align 8
  %7 = alloca i8, align 1
  store ptr %0, ptr %4, align 8, !tbaa !93
  store ptr %1, ptr %5, align 8, !tbaa !93
  store ptr %2, ptr %6, align 8, !tbaa !93
  call void @llvm.lifetime.start.p0(i64 1, ptr %7) #3
  store i8 0, ptr %7, align 1, !tbaa !55
  %8 = load ptr, ptr %4, align 8, !tbaa !93
  %9 = load ptr, ptr %5, align 8, !tbaa !93
  %10 = load ptr, ptr %6, align 8, !tbaa !93
  %11 = call noundef zeroext i1 @_ZNSt7__equalILb0EE5equalIPKfS3_EEbT_S4_T0_(ptr noundef %8, ptr noundef %9, ptr noundef %10)
  call void @llvm.lifetime.end.p0(i64 1, ptr %7) #3
  ret i1 %11
}

; Function Attrs: mustprogress nounwind uwtable
define linkonce_odr noundef ptr @_ZSt12__niter_baseIPKfSt6vectorIfSaIfEEET_N9__gnu_cxx17__normal_iteratorIS5_T0_EE(ptr %0) #5 comdat {
  %2 = alloca %"class.__gnu_cxx::__normal_iterator", align 8
  %3 = getelementptr inbounds nuw %"class.__gnu_cxx::__normal_iterator", ptr %2, i32 0, i32 0
  store ptr %0, ptr %3, align 8
  %4 = call noundef nonnull align 8 dereferenceable(8) ptr @_ZNK9__gnu_cxx17__normal_iteratorIPKfSt6vectorIfSaIfEEE4baseEv(ptr noundef nonnull align 8 dereferenceable(8) %2) #3
  %5 = load ptr, ptr %4, align 8, !tbaa !93
  ret ptr %5
}

; Function Attrs: inlinehint mustprogress uwtable
define linkonce_odr noundef zeroext i1 @_ZSt11__equal_auxIN9__gnu_cxx17__normal_iteratorIPKfSt6vectorIfSaIfEEEES7_EbT_S8_T0_(ptr %0, ptr %1, ptr %2) #7 comdat {
  %4 = alloca %"class.__gnu_cxx::__normal_iterator", align 8
  %5 = alloca %"class.__gnu_cxx::__normal_iterator", align 8
  %6 = alloca %"class.__gnu_cxx::__normal_iterator", align 8
  %7 = alloca %"class.__gnu_cxx::__normal_iterator", align 8
  %8 = alloca %"class.__gnu_cxx::__normal_iterator", align 8
  %9 = alloca %"class.__gnu_cxx::__normal_iterator", align 8
  %10 = getelementptr inbounds nuw %"class.__gnu_cxx::__normal_iterator", ptr %4, i32 0, i32 0
  store ptr %0, ptr %10, align 8
  %11 = getelementptr inbounds nuw %"class.__gnu_cxx::__normal_iterator", ptr %5, i32 0, i32 0
  store ptr %1, ptr %11, align 8
  %12 = getelementptr inbounds nuw %"class.__gnu_cxx::__normal_iterator", ptr %6, i32 0, i32 0
  store ptr %2, ptr %12, align 8
  call void @llvm.memcpy.p0.p0.i64(ptr align 8 %7, ptr align 8 %4, i64 8, i1 false), !tbaa.struct !158
  %13 = getelementptr inbounds nuw %"class.__gnu_cxx::__normal_iterator", ptr %7, i32 0, i32 0
  %14 = load ptr, ptr %13, align 8
  %15 = call noundef ptr @_ZSt12__niter_baseIPKfSt6vectorIfSaIfEEET_N9__gnu_cxx17__normal_iteratorIS5_T0_EE(ptr %14) #3
  call void @llvm.memcpy.p0.p0.i64(ptr align 8 %8, ptr align 8 %5, i64 8, i1 false), !tbaa.struct !158
  %16 = getelementptr inbounds nuw %"class.__gnu_cxx::__normal_iterator", ptr %8, i32 0, i32 0
  %17 = load ptr, ptr %16, align 8
  %18 = call noundef ptr @_ZSt12__niter_baseIPKfSt6vectorIfSaIfEEET_N9__gnu_cxx17__normal_iteratorIS5_T0_EE(ptr %17) #3
  call void @llvm.memcpy.p0.p0.i64(ptr align 8 %9, ptr align 8 %6, i64 8, i1 false), !tbaa.struct !158
  %19 = getelementptr inbounds nuw %"class.__gnu_cxx::__normal_iterator", ptr %9, i32 0, i32 0
  %20 = load ptr, ptr %19, align 8
  %21 = call noundef ptr @_ZSt12__niter_baseIPKfSt6vectorIfSaIfEEET_N9__gnu_cxx17__normal_iteratorIS5_T0_EE(ptr %20) #3
  %22 = call noundef zeroext i1 @_ZSt12__equal_aux1IPKfS1_EbT_S2_T0_(ptr noundef %15, ptr noundef %18, ptr noundef %21)
  ret i1 %22
}

; Function Attrs: mustprogress nounwind uwtable
define linkonce_odr hidden void @_ZN9__gnu_cxx17__normal_iteratorIPKfSt6vectorIfSaIfEEEC2ERKS2_(ptr noundef nonnull align 8 dereferenceable(8) %0, ptr noundef nonnull align 8 dereferenceable(8) %1) unnamed_addr #5 comdat align 2 {
  %3 = alloca ptr, align 8
  %4 = alloca ptr, align 8
  store ptr %0, ptr %3, align 8, !tbaa !168
  store ptr %1, ptr %4, align 8, !tbaa !165
  %5 = load ptr, ptr %3, align 8
  %6 = getelementptr inbounds nuw %"class.__gnu_cxx::__normal_iterator", ptr %5, i32 0, i32 0
  %7 = load ptr, ptr %4, align 8, !tbaa !165
  %8 = load ptr, ptr %7, align 8, !tbaa !93
  store ptr %8, ptr %6, align 8, !tbaa !170
  ret void
}

; Function Attrs: inlinehint mustprogress uwtable
define linkonce_odr noundef zeroext i1 @_ZSt5equalIN9__gnu_cxx17__normal_iteratorIPKfSt6vectorIfSaIfEEEES7_EbT_S8_T0_(ptr %0, ptr %1, ptr %2) #7 comdat {
  %4 = alloca %"class.__gnu_cxx::__normal_iterator", align 8
  %5 = alloca %"class.__gnu_cxx::__normal_iterator", align 8
  %6 = alloca %"class.__gnu_cxx::__normal_iterator", align 8
  %7 = alloca %"class.__gnu_cxx::__normal_iterator", align 8
  %8 = alloca %"class.__gnu_cxx::__normal_iterator", align 8
  %9 = alloca %"class.__gnu_cxx::__normal_iterator", align 8
  %10 = getelementptr inbounds nuw %"class.__gnu_cxx::__normal_iterator", ptr %4, i32 0, i32 0
  store ptr %0, ptr %10, align 8
  %11 = getelementptr inbounds nuw %"class.__gnu_cxx::__normal_iterator", ptr %5, i32 0, i32 0
  store ptr %1, ptr %11, align 8
  %12 = getelementptr inbounds nuw %"class.__gnu_cxx::__normal_iterator", ptr %6, i32 0, i32 0
  store ptr %2, ptr %12, align 8
  call void @llvm.memcpy.p0.p0.i64(ptr align 8 %7, ptr align 8 %4, i64 8, i1 false), !tbaa.struct !158
  call void @llvm.memcpy.p0.p0.i64(ptr align 8 %8, ptr align 8 %5, i64 8, i1 false), !tbaa.struct !158
  call void @llvm.memcpy.p0.p0.i64(ptr align 8 %9, ptr align 8 %6, i64 8, i1 false), !tbaa.struct !158
  %13 = getelementptr inbounds nuw %"class.__gnu_cxx::__normal_iterator", ptr %7, i32 0, i32 0
  %14 = load ptr, ptr %13, align 8
  %15 = getelementptr inbounds nuw %"class.__gnu_cxx::__normal_iterator", ptr %8, i32 0, i32 0
  %16 = load ptr, ptr %15, align 8
  %17 = getelementptr inbounds nuw %"class.__gnu_cxx::__normal_iterator", ptr %9, i32 0, i32 0
  %18 = load ptr, ptr %17, align 8
  %19 = call noundef zeroext i1 @_ZSt11__equal_auxIN9__gnu_cxx17__normal_iteratorIPKfSt6vectorIfSaIfEEEES7_EbT_S8_T0_(ptr %14, ptr %16, ptr %18)
  ret i1 %19
}

; Function Attrs: mustprogress nounwind uwtable
define linkonce_odr hidden ptr @_ZNKSt6vectorIfSaIfEE3endEv(ptr noundef nonnull align 8 dereferenceable(24) %0) #5 comdat align 2 {
  %2 = alloca %"class.__gnu_cxx::__normal_iterator", align 8
  %3 = alloca ptr, align 8
  store ptr %0, ptr %3, align 8, !tbaa !60
  %4 = load ptr, ptr %3, align 8
  %5 = getelementptr inbounds nuw %"struct.std::_Vector_base.12", ptr %4, i32 0, i32 0
  %6 = getelementptr inbounds nuw %"struct.std::_Vector_base<float, std::allocator<float>>::_Vector_impl_data", ptr %5, i32 0, i32 1
  call void @_ZN9__gnu_cxx17__normal_iteratorIPKfSt6vectorIfSaIfEEEC2ERKS2_(ptr noundef nonnull align 8 dereferenceable(8) %2, ptr noundef nonnull align 8 dereferenceable(8) %6) #3
  %7 = getelementptr inbounds nuw %"class.__gnu_cxx::__normal_iterator", ptr %2, i32 0, i32 0
  %8 = load ptr, ptr %7, align 8
  ret ptr %8
}

; Function Attrs: mustprogress nounwind uwtable
define linkonce_odr hidden ptr @_ZNKSt6vectorIfSaIfEE5beginEv(ptr noundef nonnull align 8 dereferenceable(24) %0) #5 comdat align 2 {
  %2 = alloca %"class.__gnu_cxx::__normal_iterator", align 8
  %3 = alloca ptr, align 8
  store ptr %0, ptr %3, align 8, !tbaa !60
  %4 = load ptr, ptr %3, align 8
  %5 = getelementptr inbounds nuw %"struct.std::_Vector_base.12", ptr %4, i32 0, i32 0
  %6 = getelementptr inbounds nuw %"struct.std::_Vector_base<float, std::allocator<float>>::_Vector_impl_data", ptr %5, i32 0, i32 0
  call void @_ZN9__gnu_cxx17__normal_iteratorIPKfSt6vectorIfSaIfEEEC2ERKS2_(ptr noundef nonnull align 8 dereferenceable(8) %2, ptr noundef nonnull align 8 dereferenceable(8) %6) #3
  %7 = getelementptr inbounds nuw %"class.__gnu_cxx::__normal_iterator", ptr %2, i32 0, i32 0
  %8 = load ptr, ptr %7, align 8
  ret ptr %8
}

; Function Attrs: mustprogress nounwind uwtable
define linkonce_odr hidden noundef i64 @_ZNKSt6vectorIfSaIfEE4sizeEv(ptr noundef nonnull align 8 dereferenceable(24) %0) #5 comdat align 2 {
  %2 = alloca ptr, align 8
  store ptr %0, ptr %2, align 8, !tbaa !60
  %3 = load ptr, ptr %2, align 8
  %4 = getelementptr inbounds nuw %"struct.std::_Vector_base.12", ptr %3, i32 0, i32 0
  %5 = getelementptr inbounds nuw %"struct.std::_Vector_base<float, std::allocator<float>>::_Vector_impl_data", ptr %4, i32 0, i32 1
  %6 = load ptr, ptr %5, align 8, !tbaa !95
  %7 = getelementptr inbounds nuw %"struct.std::_Vector_base.12", ptr %3, i32 0, i32 0
  %8 = getelementptr inbounds nuw %"struct.std::_Vector_base<float, std::allocator<float>>::_Vector_impl_data", ptr %7, i32 0, i32 0
  %9 = load ptr, ptr %8, align 8, !tbaa !75
  %10 = ptrtoint ptr %6 to i64
  %11 = ptrtoint ptr %9 to i64
  %12 = sub i64 %10, %11
  %13 = sdiv exact i64 %12, 4
  ret i64 %13
}

; Function Attrs: inlinehint mustprogress uwtable
define linkonce_odr noundef zeroext i1 @_ZSteqIfSaIfEEbRKSt6vectorIT_T0_ES6_(ptr noundef nonnull align 8 dereferenceable(24) %0, ptr noundef nonnull align 8 dereferenceable(24) %1) #7 comdat {
  %3 = alloca ptr, align 8
  %4 = alloca ptr, align 8
  %5 = alloca %"class.__gnu_cxx::__normal_iterator", align 8
  %6 = alloca %"class.__gnu_cxx::__normal_iterator", align 8
  %7 = alloca %"class.__gnu_cxx::__normal_iterator", align 8
  store ptr %0, ptr %3, align 8, !tbaa !60
  store ptr %1, ptr %4, align 8, !tbaa !60
  %8 = load ptr, ptr %3, align 8, !tbaa !60
  %9 = call noundef i64 @_ZNKSt6vectorIfSaIfEE4sizeEv(ptr noundef nonnull align 8 dereferenceable(24) %8) #3
  %10 = load ptr, ptr %4, align 8, !tbaa !60
  %11 = call noundef i64 @_ZNKSt6vectorIfSaIfEE4sizeEv(ptr noundef nonnull align 8 dereferenceable(24) %10) #3
  %12 = icmp eq i64 %9, %11
  br i1 %12, label %13, label %30

13:                                               ; preds = %2
  %14 = load ptr, ptr %3, align 8, !tbaa !60
  %15 = call ptr @_ZNKSt6vectorIfSaIfEE5beginEv(ptr noundef nonnull align 8 dereferenceable(24) %14) #3
  %16 = getelementptr inbounds nuw %"class.__gnu_cxx::__normal_iterator", ptr %5, i32 0, i32 0
  store ptr %15, ptr %16, align 8
  %17 = load ptr, ptr %3, align 8, !tbaa !60
  %18 = call ptr @_ZNKSt6vectorIfSaIfEE3endEv(ptr noundef nonnull align 8 dereferenceable(24) %17) #3
  %19 = getelementptr inbounds nuw %"class.__gnu_cxx::__normal_iterator", ptr %6, i32 0, i32 0
  store ptr %18, ptr %19, align 8
  %20 = load ptr, ptr %4, align 8, !tbaa !60
  %21 = call ptr @_ZNKSt6vectorIfSaIfEE5beginEv(ptr noundef nonnull align 8 dereferenceable(24) %20) #3
  %22 = getelementptr inbounds nuw %"class.__gnu_cxx::__normal_iterator", ptr %7, i32 0, i32 0
  store ptr %21, ptr %22, align 8
  %23 = getelementptr inbounds nuw %"class.__gnu_cxx::__normal_iterator", ptr %5, i32 0, i32 0
  %24 = load ptr, ptr %23, align 8
  %25 = getelementptr inbounds nuw %"class.__gnu_cxx::__normal_iterator", ptr %6, i32 0, i32 0
  %26 = load ptr, ptr %25, align 8
  %27 = getelementptr inbounds nuw %"class.__gnu_cxx::__normal_iterator", ptr %7, i32 0, i32 0
  %28 = load ptr, ptr %27, align 8
  %29 = call noundef zeroext i1 @_ZSt5equalIN9__gnu_cxx17__normal_iteratorIPKfSt6vectorIfSaIfEEEES7_EbT_S8_T0_(ptr %24, ptr %26, ptr %28)
  br label %30

30:                                               ; preds = %13, %2
  %31 = phi i1 [ false, %2 ], [ %29, %13 ]
  ret i1 %31
}

; Function Attrs: mustprogress uwtable
define linkonce_odr hidden noundef zeroext i1 @_ZNK19OpenColorIO_v2_5dev6ArrayTIfEeqERKS1_(ptr noundef nonnull align 8 dereferenceable(48) %0, ptr noundef nonnull align 8 dereferenceable(48) %1) #4 comdat align 2 {
  %3 = alloca i1, align 1
  %4 = alloca ptr, align 8
  %5 = alloca ptr, align 8
  store ptr %0, ptr %4, align 8, !tbaa !73
  store ptr %1, ptr %5, align 8, !tbaa !73
  %6 = load ptr, ptr %4, align 8
  %7 = load ptr, ptr %5, align 8, !tbaa !73
  %8 = icmp eq ptr %6, %7
  br i1 %8, label %9, label %10

9:                                                ; preds = %2
  store i1 true, ptr %3, align 1
  br label %31

10:                                               ; preds = %2
  %11 = getelementptr inbounds nuw %"class.OpenColorIO_v2_5dev::ArrayT", ptr %6, i32 0, i32 1
  %12 = load i64, ptr %11, align 8, !tbaa !80
  %13 = load ptr, ptr %5, align 8, !tbaa !73
  %14 = getelementptr inbounds nuw %"class.OpenColorIO_v2_5dev::ArrayT", ptr %13, i32 0, i32 1
  %15 = load i64, ptr %14, align 8, !tbaa !80
  %16 = icmp eq i64 %12, %15
  br i1 %16, label %17, label %29

17:                                               ; preds = %10
  %18 = getelementptr inbounds nuw %"class.OpenColorIO_v2_5dev::ArrayT", ptr %6, i32 0, i32 2
  %19 = load i64, ptr %18, align 8, !tbaa !81
  %20 = load ptr, ptr %5, align 8, !tbaa !73
  %21 = getelementptr inbounds nuw %"class.OpenColorIO_v2_5dev::ArrayT", ptr %20, i32 0, i32 2
  %22 = load i64, ptr %21, align 8, !tbaa !81
  %23 = icmp eq i64 %19, %22
  br i1 %23, label %24, label %29

24:                                               ; preds = %17
  %25 = getelementptr inbounds nuw %"class.OpenColorIO_v2_5dev::ArrayT", ptr %6, i32 0, i32 3
  %26 = load ptr, ptr %5, align 8, !tbaa !73
  %27 = getelementptr inbounds nuw %"class.OpenColorIO_v2_5dev::ArrayT", ptr %26, i32 0, i32 3
  %28 = call noundef zeroext i1 @_ZSteqIfSaIfEEbRKSt6vectorIT_T0_ES6_(ptr noundef nonnull align 8 dereferenceable(24) %25, ptr noundef nonnull align 8 dereferenceable(24) %27)
  br label %29

29:                                               ; preds = %24, %17, %10
  %30 = phi i1 [ false, %17 ], [ false, %10 ], [ %28, %24 ]
  store i1 %30, ptr %3, align 1
  br label %31

31:                                               ; preds = %29, %9
  %32 = load i1, ptr %3, align 1
  ret i1 %32
}

; Function Attrs: mustprogress uwtable
define hidden noundef zeroext i1 @_ZNK19OpenColorIO_v2_5dev11Lut3DOpData15haveEqualBasicsERKS0_(ptr noundef nonnull align 8 dereferenceable(232) %0, ptr noundef nonnull align 8 dereferenceable(232) %1) #4 align 2 {
  %3 = alloca ptr, align 8
  %4 = alloca ptr, align 8
  store ptr %0, ptr %3, align 8, !tbaa !12
  store ptr %1, ptr %4, align 8, !tbaa !12
  %5 = load ptr, ptr %3, align 8
  %6 = getelementptr inbounds nuw %"class.OpenColorIO_v2_5dev::Lut3DOpData", ptr %5, i32 0, i32 2
  %7 = load ptr, ptr %4, align 8, !tbaa !12
  %8 = getelementptr inbounds nuw %"class.OpenColorIO_v2_5dev::Lut3DOpData", ptr %7, i32 0, i32 2
  %9 = call noundef zeroext i1 @_ZNK19OpenColorIO_v2_5dev6ArrayTIfEeqERKS1_(ptr noundef nonnull align 8 dereferenceable(48) %6, ptr noundef nonnull align 8 dereferenceable(48) %8)
  ret i1 %9
}

; Function Attrs: mustprogress uwtable
define hidden noundef zeroext i1 @_ZNK19OpenColorIO_v2_5dev11Lut3DOpData6equalsERKNS_6OpDataE(ptr noundef nonnull align 8 dereferenceable(232) %0, ptr noundef nonnull align 8 dereferenceable(168) %1) unnamed_addr #4 align 2 {
  %3 = alloca i1, align 1
  %4 = alloca ptr, align 8
  %5 = alloca ptr, align 8
  %6 = alloca ptr, align 8
  %7 = alloca i32, align 4
  store ptr %0, ptr %4, align 8, !tbaa !12
  store ptr %1, ptr %5, align 8, !tbaa !71
  %8 = load ptr, ptr %4, align 8
  %9 = load ptr, ptr %5, align 8, !tbaa !71
  %10 = call noundef zeroext i1 @_ZNK19OpenColorIO_v2_5dev6OpData6equalsERKS0_(ptr noundef nonnull align 8 dereferenceable(168) %8, ptr noundef nonnull align 8 dereferenceable(168) %9)
  br i1 %10, label %12, label %11

11:                                               ; preds = %2
  store i1 false, ptr %3, align 1
  br label %32

12:                                               ; preds = %2
  call void @llvm.lifetime.start.p0(i64 8, ptr %6) #3
  %13 = load ptr, ptr %5, align 8, !tbaa !71
  store ptr %13, ptr %6, align 8, !tbaa !12
  %14 = getelementptr inbounds nuw %"class.OpenColorIO_v2_5dev::Lut3DOpData", ptr %8, i32 0, i32 3
  %15 = load i32, ptr %14, align 8, !tbaa !14
  %16 = load ptr, ptr %6, align 8, !tbaa !12
  %17 = getelementptr inbounds nuw %"class.OpenColorIO_v2_5dev::Lut3DOpData", ptr %16, i32 0, i32 3
  %18 = load i32, ptr %17, align 8, !tbaa !14
  %19 = icmp ne i32 %15, %18
  br i1 %19, label %27, label %20

20:                                               ; preds = %12
  %21 = getelementptr inbounds nuw %"class.OpenColorIO_v2_5dev::Lut3DOpData", ptr %8, i32 0, i32 1
  %22 = load i32, ptr %21, align 8, !tbaa !70
  %23 = load ptr, ptr %6, align 8, !tbaa !12
  %24 = getelementptr inbounds nuw %"class.OpenColorIO_v2_5dev::Lut3DOpData", ptr %23, i32 0, i32 1
  %25 = load i32, ptr %24, align 8, !tbaa !70
  %26 = icmp ne i32 %22, %25
  br i1 %26, label %27, label %28

27:                                               ; preds = %20, %12
  store i1 false, ptr %3, align 1
  store i32 1, ptr %7, align 4
  br label %31

28:                                               ; preds = %20
  %29 = load ptr, ptr %6, align 8, !tbaa !12
  %30 = call noundef zeroext i1 @_ZNK19OpenColorIO_v2_5dev11Lut3DOpData15haveEqualBasicsERKS0_(ptr noundef nonnull align 8 dereferenceable(232) %8, ptr noundef nonnull align 8 dereferenceable(232) %29)
  store i1 %30, ptr %3, align 1
  store i32 1, ptr %7, align 4
  br label %31

31:                                               ; preds = %28, %27
  call void @llvm.lifetime.end.p0(i64 8, ptr %6) #3
  br label %32

32:                                               ; preds = %31, %11
  %33 = load i1, ptr %3, align 1
  ret i1 %33
}