; Function Attrs: mustprogress uwtable
define hidden noundef zeroext i1 @_ZNK19OpenColorIO_v2_5dev11Lut3DOpData6equalsERKNS_6OpDataE(ptr noundef nonnull align 8 dereferenceable(232) %0, ptr noundef nonnull align 8 dereferenceable(168) %1) unnamed_addr #3 align 2 {
  %3 = tail call noundef zeroext i1 @_ZNK19OpenColorIO_v2_5dev6OpData6equalsERKS0_(ptr noundef nonnull align 8 dereferenceable(168) %0, ptr noundef nonnull align 8 dereferenceable(168) %1)
  br i1 %3, label %4, label %_ZNK19OpenColorIO_v2_5dev11Lut3DOpData15haveEqualBasicsERKS0_.exit

4:                                                ; preds = %2
  %5 = getelementptr inbounds nuw i8, ptr %0, i64 224
  %6 = load i32, ptr %5, align 8, !tbaa !11
  %7 = getelementptr inbounds nuw i8, ptr %1, i64 224
  %8 = load i32, ptr %7, align 8, !tbaa !11
  %.not = icmp eq i32 %6, %8
  br i1 %.not, label %9, label %_ZNK19OpenColorIO_v2_5dev11Lut3DOpData15haveEqualBasicsERKS0_.exit

9:                                                ; preds = %4
  %10 = getelementptr inbounds nuw i8, ptr %0, i64 168
  %11 = load i32, ptr %10, align 8, !tbaa !71
  %12 = getelementptr inbounds nuw i8, ptr %1, i64 168
  %13 = load i32, ptr %12, align 8, !tbaa !71
  %.not7 = icmp eq i32 %11, %13
  br i1 %.not7, label %14, label %_ZNK19OpenColorIO_v2_5dev11Lut3DOpData15haveEqualBasicsERKS0_.exit

14:                                               ; preds = %9
  %15 = icmp eq ptr %0, %1
  br i1 %15, label %_ZNK19OpenColorIO_v2_5dev11Lut3DOpData15haveEqualBasicsERKS0_.exit, label %16

16:                                               ; preds = %14
  %17 = getelementptr inbounds nuw i8, ptr %0, i64 184
  %18 = load i64, ptr %17, align 8, !tbaa !98
  %19 = getelementptr inbounds nuw i8, ptr %1, i64 184
  %20 = load i64, ptr %19, align 8, !tbaa !98
  %21 = icmp eq i64 %18, %20
  br i1 %21, label %22, label %_ZNK19OpenColorIO_v2_5dev11Lut3DOpData15haveEqualBasicsERKS0_.exit

22:                                               ; preds = %16
  %23 = getelementptr inbounds nuw i8, ptr %0, i64 192
  %24 = load i64, ptr %23, align 8, !tbaa !99
  %25 = getelementptr inbounds nuw i8, ptr %1, i64 192
  %26 = load i64, ptr %25, align 8, !tbaa !99
  %27 = icmp eq i64 %24, %26
  br i1 %27, label %28, label %_ZNK19OpenColorIO_v2_5dev11Lut3DOpData15haveEqualBasicsERKS0_.exit

28:                                               ; preds = %22
  %29 = getelementptr inbounds nuw i8, ptr %0, i64 200
  %30 = getelementptr inbounds nuw i8, ptr %1, i64 200
  %31 = getelementptr inbounds nuw i8, ptr %0, i64 208
  %32 = load ptr, ptr %31, align 8, !tbaa !100
  %33 = load ptr, ptr %29, align 8, !tbaa !81
  %34 = ptrtoint ptr %32 to i64
  %35 = ptrtoint ptr %33 to i64
  %36 = sub i64 %34, %35
  %37 = getelementptr inbounds nuw i8, ptr %1, i64 208
  %38 = load ptr, ptr %37, align 8, !tbaa !100
  %39 = load ptr, ptr %30, align 8, !tbaa !81
  %40 = ptrtoint ptr %38 to i64
  %41 = ptrtoint ptr %39 to i64
  %42 = sub i64 %40, %41
  %43 = icmp eq i64 %36, %42
  br i1 %43, label %44, label %_ZNK19OpenColorIO_v2_5dev11Lut3DOpData15haveEqualBasicsERKS0_.exit

44:                                               ; preds = %28
  %.not9.i.i.i.i.i.i.i = icmp eq ptr %33, %32
  br i1 %.not9.i.i.i.i.i.i.i, label %_ZNK19OpenColorIO_v2_5dev11Lut3DOpData15haveEqualBasicsERKS0_.exit, label %.lr.ph.i.i.i.i.i.i.i

.lr.ph.i.i.i.i.i.i.i:                             ; preds = %44, %.lr.ph.i.i.i.i.i.i.i
  %.011.i.i.i.i.i.i.i = phi ptr [ %49, %.lr.ph.i.i.i.i.i.i.i ], [ %39, %44 ]
  %.0810.i.i.i.i.i.i.i = phi ptr [ %48, %.lr.ph.i.i.i.i.i.i.i ], [ %33, %44 ]
  %45 = load float, ptr %.0810.i.i.i.i.i.i.i, align 4, !tbaa !92
  %46 = load float, ptr %.011.i.i.i.i.i.i.i, align 4, !tbaa !92
  %47 = fcmp oeq float %45, %46
  %48 = getelementptr inbounds nuw i8, ptr %.0810.i.i.i.i.i.i.i, i64 4
  %49 = getelementptr inbounds nuw i8, ptr %.011.i.i.i.i.i.i.i, i64 4
  %.not.i.i.i.i.i.i.i = icmp ne ptr %48, %32
  %or.cond.not = select i1 %47, i1 %.not.i.i.i.i.i.i.i, i1 false
  br i1 %or.cond.not, label %.lr.ph.i.i.i.i.i.i.i, label %_ZNK19OpenColorIO_v2_5dev11Lut3DOpData15haveEqualBasicsERKS0_.exit, !llvm.loop !111

_ZNK19OpenColorIO_v2_5dev11Lut3DOpData15haveEqualBasicsERKS0_.exit: ; preds = %.lr.ph.i.i.i.i.i.i.i, %44, %28, %22, %16, %14, %9, %4, %2
  %.0 = phi i1 [ false, %2 ], [ false, %9 ], [ false, %4 ], [ true, %14 ], [ false, %22 ], [ false, %16 ], [ false, %28 ], [ true, %44 ], [ %47, %.lr.ph.i.i.i.i.i.i.i ]
  ret i1 %.0
}